###############################################################################
#
# IAR ELF Linker V7.60.2.11341/W32 for ARM                03/Aug/2016  14:47:45
# Copyright 2007-2016 IAR Systems AB.
#
#    Output file  =  
#        D:\GoogleDriveCLT\GoogleDrive\WeatherCloud\Roadboard\Software\Road
#        Board Rev K NUCLEO BASELINE Jul 14 2016\EWARM\Nucleo Board COM
#        Test\Exe\Road Board Rev K NUCLEO V1.1 Jul 12 2016.out
#    Map file     =  
#        D:\GoogleDriveCLT\GoogleDrive\WeatherCloud\Roadboard\Software\Road
#        Board Rev K NUCLEO BASELINE Jul 14 2016\EWARM\Nucleo Board COM
#        Test\List\Road Board Rev K NUCLEO V1.1 Jul 12 2016.map
#    Command line =  
#        "D:\GoogleDriveCLT\GoogleDrive\WeatherCloud\Roadboard\Software\Road
#        Board Rev K NUCLEO BASELINE Jul 14 2016\EWARM\Nucleo Board COM
#        Test\Obj\adc.o"
#        "D:\GoogleDriveCLT\GoogleDrive\WeatherCloud\Roadboard\Software\Road
#        Board Rev K NUCLEO BASELINE Jul 14 2016\EWARM\Nucleo Board COM
#        Test\Obj\barometer.o"
#        "D:\GoogleDriveCLT\GoogleDrive\WeatherCloud\Roadboard\Software\Road
#        Board Rev K NUCLEO BASELINE Jul 14 2016\EWARM\Nucleo Board COM
#        Test\Obj\cmsis_os.o"
#        "D:\GoogleDriveCLT\GoogleDrive\WeatherCloud\Roadboard\Software\Road
#        Board Rev K NUCLEO BASELINE Jul 14 2016\EWARM\Nucleo Board COM
#        Test\Obj\croutine.o"
#        "D:\GoogleDriveCLT\GoogleDrive\WeatherCloud\Roadboard\Software\Road
#        Board Rev K NUCLEO BASELINE Jul 14 2016\EWARM\Nucleo Board COM
#        Test\Obj\dma.o"
#        "D:\GoogleDriveCLT\GoogleDrive\WeatherCloud\Roadboard\Software\Road
#        Board Rev K NUCLEO BASELINE Jul 14 2016\EWARM\Nucleo Board COM
#        Test\Obj\event_groups.o"
#        "D:\GoogleDriveCLT\GoogleDrive\WeatherCloud\Roadboard\Software\Road
#        Board Rev K NUCLEO BASELINE Jul 14 2016\EWARM\Nucleo Board COM
#        Test\Obj\freertos.o"
#        "D:\GoogleDriveCLT\GoogleDrive\WeatherCloud\Roadboard\Software\Road
#        Board Rev K NUCLEO BASELINE Jul 14 2016\EWARM\Nucleo Board COM
#        Test\Obj\gpio.o"
#        "D:\GoogleDriveCLT\GoogleDrive\WeatherCloud\Roadboard\Software\Road
#        Board Rev K NUCLEO BASELINE Jul 14 2016\EWARM\Nucleo Board COM
#        Test\Obj\heap_4.o"
#        "D:\GoogleDriveCLT\GoogleDrive\WeatherCloud\Roadboard\Software\Road
#        Board Rev K NUCLEO BASELINE Jul 14 2016\EWARM\Nucleo Board COM
#        Test\Obj\i2c.o"
#        "D:\GoogleDriveCLT\GoogleDrive\WeatherCloud\Roadboard\Software\Road
#        Board Rev K NUCLEO BASELINE Jul 14 2016\EWARM\Nucleo Board COM
#        Test\Obj\list.o"
#        "D:\GoogleDriveCLT\GoogleDrive\WeatherCloud\Roadboard\Software\Road
#        Board Rev K NUCLEO BASELINE Jul 14 2016\EWARM\Nucleo Board COM
#        Test\Obj\main.o"
#        "D:\GoogleDriveCLT\GoogleDrive\WeatherCloud\Roadboard\Software\Road
#        Board Rev K NUCLEO BASELINE Jul 14 2016\EWARM\Nucleo Board COM
#        Test\Obj\port.o"
#        "D:\GoogleDriveCLT\GoogleDrive\WeatherCloud\Roadboard\Software\Road
#        Board Rev K NUCLEO BASELINE Jul 14 2016\EWARM\Nucleo Board COM
#        Test\Obj\portasm.o"
#        "D:\GoogleDriveCLT\GoogleDrive\WeatherCloud\Roadboard\Software\Road
#        Board Rev K NUCLEO BASELINE Jul 14 2016\EWARM\Nucleo Board COM
#        Test\Obj\queue.o"
#        "D:\GoogleDriveCLT\GoogleDrive\WeatherCloud\Roadboard\Software\Road
#        Board Rev K NUCLEO BASELINE Jul 14 2016\EWARM\Nucleo Board COM
#        Test\Obj\startup_stm32l152xe.o"
#        "D:\GoogleDriveCLT\GoogleDrive\WeatherCloud\Roadboard\Software\Road
#        Board Rev K NUCLEO BASELINE Jul 14 2016\EWARM\Nucleo Board COM
#        Test\Obj\stm32l1xx_hal.o"
#        "D:\GoogleDriveCLT\GoogleDrive\WeatherCloud\Roadboard\Software\Road
#        Board Rev K NUCLEO BASELINE Jul 14 2016\EWARM\Nucleo Board COM
#        Test\Obj\stm32l1xx_hal_adc.o"
#        "D:\GoogleDriveCLT\GoogleDrive\WeatherCloud\Roadboard\Software\Road
#        Board Rev K NUCLEO BASELINE Jul 14 2016\EWARM\Nucleo Board COM
#        Test\Obj\stm32l1xx_hal_adc_ex.o"
#        "D:\GoogleDriveCLT\GoogleDrive\WeatherCloud\Roadboard\Software\Road
#        Board Rev K NUCLEO BASELINE Jul 14 2016\EWARM\Nucleo Board COM
#        Test\Obj\stm32l1xx_hal_cortex.o"
#        "D:\GoogleDriveCLT\GoogleDrive\WeatherCloud\Roadboard\Software\Road
#        Board Rev K NUCLEO BASELINE Jul 14 2016\EWARM\Nucleo Board COM
#        Test\Obj\stm32l1xx_hal_dma.o"
#        "D:\GoogleDriveCLT\GoogleDrive\WeatherCloud\Roadboard\Software\Road
#        Board Rev K NUCLEO BASELINE Jul 14 2016\EWARM\Nucleo Board COM
#        Test\Obj\stm32l1xx_hal_flash.o"
#        "D:\GoogleDriveCLT\GoogleDrive\WeatherCloud\Roadboard\Software\Road
#        Board Rev K NUCLEO BASELINE Jul 14 2016\EWARM\Nucleo Board COM
#        Test\Obj\stm32l1xx_hal_flash_ex.o"
#        "D:\GoogleDriveCLT\GoogleDrive\WeatherCloud\Roadboard\Software\Road
#        Board Rev K NUCLEO BASELINE Jul 14 2016\EWARM\Nucleo Board COM
#        Test\Obj\stm32l1xx_hal_flash_ramfunc.o"
#        "D:\GoogleDriveCLT\GoogleDrive\WeatherCloud\Roadboard\Software\Road
#        Board Rev K NUCLEO BASELINE Jul 14 2016\EWARM\Nucleo Board COM
#        Test\Obj\stm32l1xx_hal_gpio.o"
#        "D:\GoogleDriveCLT\GoogleDrive\WeatherCloud\Roadboard\Software\Road
#        Board Rev K NUCLEO BASELINE Jul 14 2016\EWARM\Nucleo Board COM
#        Test\Obj\stm32l1xx_hal_i2c.o"
#        "D:\GoogleDriveCLT\GoogleDrive\WeatherCloud\Roadboard\Software\Road
#        Board Rev K NUCLEO BASELINE Jul 14 2016\EWARM\Nucleo Board COM
#        Test\Obj\stm32l1xx_hal_msp.o"
#        "D:\GoogleDriveCLT\GoogleDrive\WeatherCloud\Roadboard\Software\Road
#        Board Rev K NUCLEO BASELINE Jul 14 2016\EWARM\Nucleo Board COM
#        Test\Obj\stm32l1xx_hal_pcd.o"
#        "D:\GoogleDriveCLT\GoogleDrive\WeatherCloud\Roadboard\Software\Road
#        Board Rev K NUCLEO BASELINE Jul 14 2016\EWARM\Nucleo Board COM
#        Test\Obj\stm32l1xx_hal_pcd_ex.o"
#        "D:\GoogleDriveCLT\GoogleDrive\WeatherCloud\Roadboard\Software\Road
#        Board Rev K NUCLEO BASELINE Jul 14 2016\EWARM\Nucleo Board COM
#        Test\Obj\stm32l1xx_hal_pwr.o"
#        "D:\GoogleDriveCLT\GoogleDrive\WeatherCloud\Roadboard\Software\Road
#        Board Rev K NUCLEO BASELINE Jul 14 2016\EWARM\Nucleo Board COM
#        Test\Obj\stm32l1xx_hal_pwr_ex.o"
#        "D:\GoogleDriveCLT\GoogleDrive\WeatherCloud\Roadboard\Software\Road
#        Board Rev K NUCLEO BASELINE Jul 14 2016\EWARM\Nucleo Board COM
#        Test\Obj\stm32l1xx_hal_rcc.o"
#        "D:\GoogleDriveCLT\GoogleDrive\WeatherCloud\Roadboard\Software\Road
#        Board Rev K NUCLEO BASELINE Jul 14 2016\EWARM\Nucleo Board COM
#        Test\Obj\stm32l1xx_hal_rcc_ex.o"
#        "D:\GoogleDriveCLT\GoogleDrive\WeatherCloud\Roadboard\Software\Road
#        Board Rev K NUCLEO BASELINE Jul 14 2016\EWARM\Nucleo Board COM
#        Test\Obj\stm32l1xx_hal_tim.o"
#        "D:\GoogleDriveCLT\GoogleDrive\WeatherCloud\Roadboard\Software\Road
#        Board Rev K NUCLEO BASELINE Jul 14 2016\EWARM\Nucleo Board COM
#        Test\Obj\stm32l1xx_hal_tim_ex.o"
#        "D:\GoogleDriveCLT\GoogleDrive\WeatherCloud\Roadboard\Software\Road
#        Board Rev K NUCLEO BASELINE Jul 14 2016\EWARM\Nucleo Board COM
#        Test\Obj\stm32l1xx_hal_timebase_TIM.o"
#        "D:\GoogleDriveCLT\GoogleDrive\WeatherCloud\Roadboard\Software\Road
#        Board Rev K NUCLEO BASELINE Jul 14 2016\EWARM\Nucleo Board COM
#        Test\Obj\stm32l1xx_hal_uart.o"
#        "D:\GoogleDriveCLT\GoogleDrive\WeatherCloud\Roadboard\Software\Road
#        Board Rev K NUCLEO BASELINE Jul 14 2016\EWARM\Nucleo Board COM
#        Test\Obj\stm32l1xx_hal_wwdg.o"
#        "D:\GoogleDriveCLT\GoogleDrive\WeatherCloud\Roadboard\Software\Road
#        Board Rev K NUCLEO BASELINE Jul 14 2016\EWARM\Nucleo Board COM
#        Test\Obj\stm32l1xx_it.o"
#        "D:\GoogleDriveCLT\GoogleDrive\WeatherCloud\Roadboard\Software\Road
#        Board Rev K NUCLEO BASELINE Jul 14 2016\EWARM\Nucleo Board COM
#        Test\Obj\stm32l1xx_nucleo.o"
#        "D:\GoogleDriveCLT\GoogleDrive\WeatherCloud\Roadboard\Software\Road
#        Board Rev K NUCLEO BASELINE Jul 14 2016\EWARM\Nucleo Board COM
#        Test\Obj\system_stm32l1xx.o"
#        "D:\GoogleDriveCLT\GoogleDrive\WeatherCloud\Roadboard\Software\Road
#        Board Rev K NUCLEO BASELINE Jul 14 2016\EWARM\Nucleo Board COM
#        Test\Obj\tasks.o"
#        "D:\GoogleDriveCLT\GoogleDrive\WeatherCloud\Roadboard\Software\Road
#        Board Rev K NUCLEO BASELINE Jul 14 2016\EWARM\Nucleo Board COM
#        Test\Obj\tim.o"
#        "D:\GoogleDriveCLT\GoogleDrive\WeatherCloud\Roadboard\Software\Road
#        Board Rev K NUCLEO BASELINE Jul 14 2016\EWARM\Nucleo Board COM
#        Test\Obj\timers.o"
#        "D:\GoogleDriveCLT\GoogleDrive\WeatherCloud\Roadboard\Software\Road
#        Board Rev K NUCLEO BASELINE Jul 14 2016\EWARM\Nucleo Board COM
#        Test\Obj\usart.o"
#        "D:\GoogleDriveCLT\GoogleDrive\WeatherCloud\Roadboard\Software\Road
#        Board Rev K NUCLEO BASELINE Jul 14 2016\EWARM\Nucleo Board COM
#        Test\Obj\usb_device.o"
#        "D:\GoogleDriveCLT\GoogleDrive\WeatherCloud\Roadboard\Software\Road
#        Board Rev K NUCLEO BASELINE Jul 14 2016\EWARM\Nucleo Board COM
#        Test\Obj\usbd_cdc.o"
#        "D:\GoogleDriveCLT\GoogleDrive\WeatherCloud\Roadboard\Software\Road
#        Board Rev K NUCLEO BASELINE Jul 14 2016\EWARM\Nucleo Board COM
#        Test\Obj\usbd_cdc_if.o"
#        "D:\GoogleDriveCLT\GoogleDrive\WeatherCloud\Roadboard\Software\Road
#        Board Rev K NUCLEO BASELINE Jul 14 2016\EWARM\Nucleo Board COM
#        Test\Obj\usbd_conf.o"
#        "D:\GoogleDriveCLT\GoogleDrive\WeatherCloud\Roadboard\Software\Road
#        Board Rev K NUCLEO BASELINE Jul 14 2016\EWARM\Nucleo Board COM
#        Test\Obj\usbd_core.o"
#        "D:\GoogleDriveCLT\GoogleDrive\WeatherCloud\Roadboard\Software\Road
#        Board Rev K NUCLEO BASELINE Jul 14 2016\EWARM\Nucleo Board COM
#        Test\Obj\usbd_ctlreq.o"
#        "D:\GoogleDriveCLT\GoogleDrive\WeatherCloud\Roadboard\Software\Road
#        Board Rev K NUCLEO BASELINE Jul 14 2016\EWARM\Nucleo Board COM
#        Test\Obj\usbd_desc.o"
#        "D:\GoogleDriveCLT\GoogleDrive\WeatherCloud\Roadboard\Software\Road
#        Board Rev K NUCLEO BASELINE Jul 14 2016\EWARM\Nucleo Board COM
#        Test\Obj\usbd_ioreq.o"
#        "D:\GoogleDriveCLT\GoogleDrive\WeatherCloud\Roadboard\Software\Road
#        Board Rev K NUCLEO BASELINE Jul 14 2016\EWARM\Nucleo Board COM
#        Test\Obj\wwdg.o" --redirect _Printf=_PrintfFull --redirect
#        _Scanf=_ScanfFull -o
#        "D:\GoogleDriveCLT\GoogleDrive\WeatherCloud\Roadboard\Software\Road
#        Board Rev K NUCLEO BASELINE Jul 14 2016\EWARM\Nucleo Board COM
#        Test\Exe\Road Board Rev K NUCLEO V1.1 Jul 12 2016.out" --map
#        "D:\GoogleDriveCLT\GoogleDrive\WeatherCloud\Roadboard\Software\Road
#        Board Rev K NUCLEO BASELINE Jul 14 2016\EWARM\Nucleo Board COM
#        Test\List\Road Board Rev K NUCLEO V1.1 Jul 12 2016.map" --config
#        "D:\GoogleDriveCLT\GoogleDrive\WeatherCloud\Roadboard\Software\Road
#        Board Rev K NUCLEO BASELINE Jul 14 2016\EWARM/stm32l152xe_flash.icf"
#        --semihosting --entry __iar_program_start --vfe
#
###############################################################################

*******************************************************************************
*** RUNTIME MODEL ATTRIBUTES
***

CppFlavor       = *
__SystemLibrary = DLib


*******************************************************************************
*** PLACEMENT SUMMARY
***

"A1":  place at 0x08000000 { ro section .intvec };
"P1":  place in [from 0x08000000 to 0x0807ffff] { ro };
"P2":  place in [from 0x20000000 to 0x20013fff] { rw, block CSTACK, block HEAP };
initialize by copy { rw };

  Section            Kind        Address    Size  Object
  -------            ----        -------    ----  ------
"A1":                                      0x124
  .intvec            ro code  0x08000000   0x124  startup_stm32l152xe.o [1]
                            - 0x08000124   0x124

"P1":                                     0x3c8d
  .text              ro code  0x08000124   0xad2  stm32l1xx_hal_pcd.o [1]
  .text              ro code  0x08000bf8    0xf0  usbd_conf.o [1]
  .text              ro code  0x08000ce8   0x20a  usbd_core.o [1]
  .text              ro code  0x08000ef4   0x37a  usbd_ctlreq.o [1]
  .text              ro code  0x0800126e    0x4e  usbd_ioreq.o [1]
  .text              ro code  0x080012bc   0x65c  stm32l1xx_hal_dma.o [1]
  .text              ro code  0x08001918   0x624  stm32l1xx_hal_rcc.o [1]
  .text              ro code  0x08001f3c    0x44  stm32l1xx_hal.o [1]
  .text              ro code  0x08001f80    0x7c  stm32l1xx_hal_timebase_TIM.o [1]
  .text              ro code  0x08001ffc    0x10  stm32l1xx_hal_pwr_ex.o [1]
  .text              ro code  0x0800200c    0xdc  stm32l1xx_hal_cortex.o [1]
  .text              ro code  0x080020e8    0x8c  stm32l1xx_hal_msp.o [1]
  .text              ro code  0x08002174   0x336  stm32l1xx_hal_tim.o [1]
  .text              ro code  0x080024ac    0xb8  tim.o [1]
  .text              ro code  0x08002564   0x146  main.o [1]
  .text              ro code  0x080026aa    0x4e  stm32l1xx_hal_tim_ex.o [1]
  .text              ro code  0x080026f8   0x160  gpio.o [1]
  .text              ro code  0x08002858    0x30  dma.o [1]
  .text              ro code  0x08002888   0x170  adc.o [1]
  .text              ro code  0x080029f8    0x98  i2c.o [1]
  .text              ro code  0x08002a90   0x1d4  usart.o [1]
  .text              ro code  0x08002c64    0x54  wwdg.o [1]
  .text              ro code  0x08002cb8    0x30  stm32l1xx_nucleo.o [1]
  .text              ro code  0x08002ce8   0x2b8  stm32l1xx_hal_gpio.o [1]
  .text              ro code  0x08002fa0   0x3cc  stm32l1xx_hal_adc.o [1]
  .text              ro code  0x0800336c   0x120  stm32l1xx_hal_i2c.o [1]
  .text              ro code  0x0800348c   0x3da  stm32l1xx_hal_uart.o [1]
  .text              ro code  0x08003866    0x42  stm32l1xx_hal_wwdg.o [1]
  .text              ro code  0x080038a8   0x144  tasks.o [1]
  CODE               ro code  0x080039ec    0x94  portasm.o [1]
  .text              ro code  0x08003a80    0x3c  list.o [1]
  .text              ro code  0x08003abc    0x58  system_stm32l1xx.o [1]
  .text              ro code  0x08003b14    0x40  zero_init3.o [4]
  .text              ro code  0x08003b54    0x38  packbits_init_single.o [4]
  .text              ro code  0x08003b8c    0x28  data_init.o [4]
  .text              ro code  0x08003bb4    0x24  port.o [1]
  .text              ro code  0x08003bd8    0x24  stm32l1xx_it.o [1]
  .text              ro code  0x08003bfc    0x14  cmsis_os.o [1]
  .iar.init_table    const    0x08003c10    0x20  - Linker created -
  .text              ro code  0x08003c30    0x1a  cmain.o [4]
  .text              ro code  0x08003c4a     0x4  low_level_init.o [3]
  .text              ro code  0x08003c4e     0x4  exit.o [3]
  .text              ro code  0x08003c54     0xa  cexit.o [4]
  .text              ro code  0x08003c60    0x14  exit.o [5]
  .text              ro code  0x08003c74    0x10  startup_stm32l152xe.o [1]
  .text              ro code  0x08003c84     0xc  cstartup_M.o [4]
  .rodata            const    0x08003c90     0x8  system_stm32l1xx.o [1]
  .text              ro code  0x08003c98     0x4  startup_stm32l152xe.o [1]
  .text              ro code  0x08003c9c     0x4  startup_stm32l152xe.o [1]
  .text              ro code  0x08003ca0     0x4  startup_stm32l152xe.o [1]
  .text              ro code  0x08003ca4     0x4  startup_stm32l152xe.o [1]
  .text              ro code  0x08003ca8     0x4  startup_stm32l152xe.o [1]
  .text              ro code  0x08003cac     0x4  startup_stm32l152xe.o [1]
  .text              ro code  0x08003cb0     0x4  startup_stm32l152xe.o [1]
  .text              ro code  0x08003cb4     0x4  startup_stm32l152xe.o [1]
  .text              ro code  0x08003cb8     0x4  startup_stm32l152xe.o [1]
  .text              ro code  0x08003cbc     0x4  startup_stm32l152xe.o [1]
  .text              ro code  0x08003cc0     0x4  startup_stm32l152xe.o [1]
  .text              ro code  0x08003cc4     0x4  startup_stm32l152xe.o [1]
  .text              ro code  0x08003cc8     0x4  startup_stm32l152xe.o [1]
  .text              ro code  0x08003ccc     0x4  startup_stm32l152xe.o [1]
  .text              ro code  0x08003cd0     0x4  startup_stm32l152xe.o [1]
  .text              ro code  0x08003cd4     0x4  startup_stm32l152xe.o [1]
  .text              ro code  0x08003cd8     0x4  startup_stm32l152xe.o [1]
  .text              ro code  0x08003cdc     0x4  startup_stm32l152xe.o [1]
  .text              ro code  0x08003ce0     0x4  startup_stm32l152xe.o [1]
  .text              ro code  0x08003ce4     0x4  startup_stm32l152xe.o [1]
  .text              ro code  0x08003ce8     0x4  startup_stm32l152xe.o [1]
  .text              ro code  0x08003cec     0x4  startup_stm32l152xe.o [1]
  .text              ro code  0x08003cf0     0x4  startup_stm32l152xe.o [1]
  .text              ro code  0x08003cf4     0x4  startup_stm32l152xe.o [1]
  .text              ro code  0x08003cf8     0x4  startup_stm32l152xe.o [1]
  .text              ro code  0x08003cfc     0x4  startup_stm32l152xe.o [1]
  .text              ro code  0x08003d00     0x4  startup_stm32l152xe.o [1]
  .text              ro code  0x08003d04     0x4  startup_stm32l152xe.o [1]
  .text              ro code  0x08003d08     0x4  startup_stm32l152xe.o [1]
  .text              ro code  0x08003d0c     0x4  startup_stm32l152xe.o [1]
  .text              ro code  0x08003d10     0x4  startup_stm32l152xe.o [1]
  .text              ro code  0x08003d14     0x4  startup_stm32l152xe.o [1]
  .text              ro code  0x08003d18     0x4  startup_stm32l152xe.o [1]
  .text              ro code  0x08003d1c     0x4  startup_stm32l152xe.o [1]
  .text              ro code  0x08003d20     0x4  startup_stm32l152xe.o [1]
  .text              ro code  0x08003d24     0x4  startup_stm32l152xe.o [1]
  .text              ro code  0x08003d28     0x4  startup_stm32l152xe.o [1]
  .text              ro code  0x08003d2c     0x4  startup_stm32l152xe.o [1]
  .text              ro code  0x08003d30     0x4  startup_stm32l152xe.o [1]
  .text              ro code  0x08003d34     0x4  startup_stm32l152xe.o [1]
  .text              ro code  0x08003d38     0x4  startup_stm32l152xe.o [1]
  .text              ro code  0x08003d3c     0x4  startup_stm32l152xe.o [1]
  .text              ro code  0x08003d40     0x4  startup_stm32l152xe.o [1]
  .text              ro code  0x08003d44     0x4  startup_stm32l152xe.o [1]
  .text              ro code  0x08003d48     0x4  startup_stm32l152xe.o [1]
  .text              ro code  0x08003d4c     0x4  startup_stm32l152xe.o [1]
  .text              ro code  0x08003d50     0x4  startup_stm32l152xe.o [1]
  .text              ro code  0x08003d54     0x4  startup_stm32l152xe.o [1]
  .text              ro code  0x08003d58     0x4  startup_stm32l152xe.o [1]
  .text              ro code  0x08003d5c     0x4  startup_stm32l152xe.o [1]
  .text              ro code  0x08003d60     0x4  startup_stm32l152xe.o [1]
  .text              ro code  0x08003d64     0x4  startup_stm32l152xe.o [1]
  .text              ro code  0x08003d68     0x4  startup_stm32l152xe.o [1]
  .text              ro code  0x08003d6c     0x4  startup_stm32l152xe.o [1]
  .text              ro code  0x08003d70     0x4  startup_stm32l152xe.o [1]
  .text              ro code  0x08003d74     0x4  startup_stm32l152xe.o [1]
  .text              ro code  0x08003d78     0x4  startup_stm32l152xe.o [1]
  .text              ro code  0x08003d7c     0x4  startup_stm32l152xe.o [1]
  .rodata            const    0x08003d80     0x0  zero_init3.o [4]
  .rodata            const    0x08003d80     0x0  packbits_init_single.o [4]
  Initializer bytes  const    0x08003d80    0x31  <for P2-1>
                            - 0x08003db1  0x3c8d

"P2", part 1 of 3:                          0x98
  P2-1                        0x20000000    0x98  <Init block>
    .data            inited   0x20000000    0x70  adc.o [1]
    .data            inited   0x20000070    0x20  gpio.o [1]
    .data            inited   0x20000090     0x4  stm32l1xx_nucleo.o [1]
    .data            inited   0x20000094     0x4  system_stm32l1xx.o [1]
                            - 0x20000098    0x98

"P2", part 2 of 3:                         0x400
  CSTACK                      0x20000098   0x400  <Block>
    CSTACK           uninit   0x20000098   0x400  <Block tail>
                            - 0x20000498   0x400

"P2", part 3 of 3:                         0x500
  .bss               zero     0x20000498   0x220  usbd_conf.o [1]
  .bss               zero     0x200006b8    0x9c  tasks.o [1]
  .bss               zero     0x20000754    0x8c  tasks.o [1]
  .bss               zero     0x200007e0    0x80  usart.o [1]
  .bss               zero     0x20000860    0x3c  i2c.o [1]
  .bss               zero     0x2000089c    0x38  adc.o [1]
  .bss               zero     0x200008d4    0x38  stm32l1xx_hal_timebase_TIM.o [1]
  .bss               zero     0x2000090c    0x38  tim.o [1]
  .bss               zero     0x20000944    0x38  tim.o [1]
  .bss               zero     0x2000097c    0x14  wwdg.o [1]
  .bss               zero     0x20000990     0x4  stm32l1xx_hal.o [1]
  .bss               zero     0x20000994     0x2  usart.o [1]
  .bss               zero     0x20000996     0x1  usbd_ctlreq.o [1]
                            - 0x20000997   0x4ff


*******************************************************************************
*** INIT TABLE
***

          Address     Size
          -------     ----
Zero (__iar_zero_init3)
    1 destination range, total size 0x4ff:
          0x20000498  0x4ff

Copy/packbits (__iar_packbits_init_single3)
    1 source range, total size 0x31 (32% of destination):
          0x08003d80   0x31
    1 destination range, total size 0x98:
          0x20000000   0x98



*******************************************************************************
*** MODULE SUMMARY
***

    Module                        ro code  ro data  rw data
    ------                        -------  -------  -------
D:\GoogleDriveCLT\GoogleDrive\WeatherCloud\Roadboard\Software\Road Board Rev K NUCLEO BASELINE Jul 14 2016\EWARM\Nucleo Board COM Test\Obj: [1]
    adc.o                             368       36      168
    cmsis_os.o                         20
    dma.o                              48
    gpio.o                            352       10       32
    i2c.o                             152                60
    list.o                             60
    main.o                            326
    port.o                             36
    portasm.o                         148
    startup_stm32l152xe.o             540
    stm32l1xx_hal.o                    68                 4
    stm32l1xx_hal_adc.o               972
    stm32l1xx_hal_cortex.o            220
    stm32l1xx_hal_dma.o             1 628
    stm32l1xx_hal_gpio.o              696
    stm32l1xx_hal_i2c.o               288
    stm32l1xx_hal_msp.o               140
    stm32l1xx_hal_pcd.o             2 770
    stm32l1xx_hal_pwr_ex.o             16
    stm32l1xx_hal_rcc.o             1 572
    stm32l1xx_hal_tim.o               822
    stm32l1xx_hal_tim_ex.o             78
    stm32l1xx_hal_timebase_TIM.o      124                56
    stm32l1xx_hal_uart.o              986
    stm32l1xx_hal_wwdg.o               66
    stm32l1xx_it.o                     36
    stm32l1xx_nucleo.o                 48        1        4
    system_stm32l1xx.o                 88       10        4
    tasks.o                           324               296
    tim.o                             184               112
    usart.o                           468               130
    usbd_conf.o                       240               544
    usbd_core.o                       522
    usbd_ctlreq.o                     890                 1
    usbd_ioreq.o                       78
    wwdg.o                             84                20
    -------------------------------------------------------
    Total:                         15 458       57    1 431

command line: [2]
    -------------------------------------------------------
    Total:

dl7M_tlf.a: [3]
    exit.o                              4
    low_level_init.o                    4
    -------------------------------------------------------
    Total:                              8

rt7M_tl.a: [4]
    cexit.o                            10
    cmain.o                            26
    cstartup_M.o                       12
    data_init.o                        40
    packbits_init_single.o             56
    zero_init3.o                       64
    -------------------------------------------------------
    Total:                            208

shb_l.a: [5]
    exit.o                             20
    -------------------------------------------------------
    Total:                             20

    Gaps                               10
    Linker created                              32    1 024
-----------------------------------------------------------
    Grand Total:                   15 704       89    2 455


*******************************************************************************
*** ENTRY LIST
***

Entry                      Address   Size  Type      Object
-----                      -------   ----  ----      ------
.iar.init_table$$Base   0x08003c10          --   Gb  - Linker created -
.iar.init_table$$Limit  0x08003c30          --   Gb  - Linker created -
?main                   0x08003c31         Code  Gb  cmain.o [4]
ADC_Channel             0x20000002    0x1  Data  Lc  adc.o [1]
ADC_Config              0x08002969   0x68  Code  Gb  adc.o [1]
ADC_ConversionStop_Disable
                        0x08003329   0x44  Code  Gb  stm32l1xx_hal_adc.o [1]
AHBPrescTable           0x08003b04   0x10  Data  Gb  system_stm32l1xx.o [1]
APBPrescTable           0x08003c90    0x8  Data  Gb  system_stm32l1xx.o [1]
BSP_LED_On              0x08002cb9   0x14  Code  Gb  stm32l1xx_nucleo.o [1]
BSP_LED_Toggle          0x08002ccd   0x12  Code  Gb  stm32l1xx_nucleo.o [1]
CSTACK$$Base            0x20000098          --   Gb  - Linker created -
CSTACK$$Limit           0x20000498          --   Gb  - Linker created -
DMA1_Channel1_IRQHandler
                        0x08003bdd    0x6  Code  Gb  stm32l1xx_it.o [1]
Error_Handler           0x08002695   0x16  Code  Gb  main.o [1]
HAL_ADC_ConfigChannel   0x080031e5  0x112  Code  Gb  stm32l1xx_hal_adc.o [1]
HAL_ADC_DeInit          0x080030e5  0x100  Code  Gb  stm32l1xx_hal_adc.o [1]
HAL_ADC_Init            0x08002fa1  0x138  Code  Gb  stm32l1xx_hal_adc.o [1]
HAL_ADC_MspDeInit       0x0800293f   0x2a  Code  Gb  adc.o [1]
HAL_ADC_MspInit         0x080028d7   0x68  Code  Gb  adc.o [1]
HAL_DMA_DeInit          0x08001307  0x1e0  Code  Gb  stm32l1xx_hal_dma.o [1]
HAL_DMA_IRQHandler      0x080014e7  0x3ee  Code  Gb  stm32l1xx_hal_dma.o [1]
HAL_DMA_Init            0x080012bd   0x4a  Code  Gb  stm32l1xx_hal_dma.o [1]
HAL_Delay               0x08001f63   0x18  Code  Wk  stm32l1xx_hal.o [1]
HAL_GPIO_DeInit         0x08002e6b   0xf2  Code  Gb  stm32l1xx_hal_gpio.o [1]
HAL_GPIO_Init           0x08002ce9  0x182  Code  Gb  stm32l1xx_hal_gpio.o [1]
HAL_GPIO_TogglePin      0x08002f6f    0x8  Code  Gb  stm32l1xx_hal_gpio.o [1]
HAL_GPIO_WritePin       0x08002f67    0x8  Code  Gb  stm32l1xx_hal_gpio.o [1]
HAL_GetTick             0x08001f5d    0x6  Code  Wk  stm32l1xx_hal.o [1]
HAL_I2C_Init            0x0800336d  0x10a  Code  Gb  stm32l1xx_hal_i2c.o [1]
HAL_I2C_MspInit         0x08002a2d   0x42  Code  Gb  i2c.o [1]
HAL_IncTick             0x08001f53    0xa  Code  Wk  stm32l1xx_hal.o [1]
HAL_Init                0x08001f3d   0x16  Code  Gb  stm32l1xx_hal.o [1]
HAL_InitTick            0x08001f81   0x66  Code  Gb  stm32l1xx_hal_timebase_TIM.o [1]
HAL_MspInit             0x080020e9   0x8c  Code  Gb  stm32l1xx_hal_msp.o [1]
HAL_NVIC_EnableIRQ      0x0800207b    0xc  Code  Gb  stm32l1xx_hal_cortex.o [1]
HAL_NVIC_SetPriority    0x08002041   0x3a  Code  Gb  stm32l1xx_hal_cortex.o [1]
HAL_NVIC_SetPriorityGrouping
                        0x08002027   0x1a  Code  Gb  stm32l1xx_hal_cortex.o [1]
HAL_PCD_DataInStageCallback
                        0x08000c19   0x10  Code  Gb  usbd_conf.o [1]
HAL_PCD_DataOutStageCallback
                        0x08000c07   0x12  Code  Gb  usbd_conf.o [1]
HAL_PCD_EP_ClrStall     0x08000b45   0x92  Code  Gb  stm32l1xx_hal_pcd.o [1]
HAL_PCD_EP_Open         0x08000591  0x25c  Code  Gb  stm32l1xx_hal_pcd.o [1]
HAL_PCD_EP_Receive      0x08000813   0xfe  Code  Gb  stm32l1xx_hal_pcd.o [1]
HAL_PCD_EP_SetStall     0x08000acb   0x70  Code  Gb  stm32l1xx_hal_pcd.o [1]
HAL_PCD_EP_Transmit     0x08000941  0x152  Code  Gb  stm32l1xx_hal_pcd.o [1]
HAL_PCD_IRQHandler      0x08000471   0xf2  Code  Gb  stm32l1xx_hal_pcd.o [1]
HAL_PCD_ResetCallback   0x08000c31   0x1a  Code  Gb  usbd_conf.o [1]
HAL_PCD_ResumeCallback  0x08000c67    0x8  Code  Gb  usbd_conf.o [1]
HAL_PCD_SOFCallback     0x08000c29    0x8  Code  Gb  usbd_conf.o [1]
HAL_PCD_SetAddress      0x08000563   0x22  Code  Gb  stm32l1xx_hal_pcd.o [1]
HAL_PCD_SetupStageCallback
                        0x08000bf9    0xe  Code  Gb  usbd_conf.o [1]
HAL_PCD_SuspendCallback
                        0x08000c4b   0x1c  Code  Gb  usbd_conf.o [1]
HAL_PWREx_GetVoltageRange
                        0x08001ffd    0xa  Code  Gb  stm32l1xx_hal_pwr_ex.o [1]
HAL_RCC_ClockConfig     0x08001c77  0x13e  Code  Gb  stm32l1xx_hal_rcc.o [1]
HAL_RCC_GetClockConfig  0x08001e5b   0x34  Code  Gb  stm32l1xx_hal_rcc.o [1]
HAL_RCC_GetHCLKFreq     0x08001e31    0x6  Code  Gb  stm32l1xx_hal_rcc.o [1]
HAL_RCC_GetPCLK1Freq    0x08001e37   0x10  Code  Gb  stm32l1xx_hal_rcc.o [1]
HAL_RCC_GetPCLK2Freq    0x08001e47    0xe  Code  Gb  stm32l1xx_hal_rcc.o [1]
HAL_RCC_GetSysClockFreq
                        0x08001dd7   0x5a  Code  Gb  stm32l1xx_hal_rcc.o [1]
HAL_RCC_OscConfig       0x08001919  0x328  Code  Gb  stm32l1xx_hal_rcc.o [1]
HAL_SYSTICK_CLKSourceConfig
                        0x080020b7   0x16  Code  Gb  stm32l1xx_hal_cortex.o [1]
HAL_SYSTICK_Config      0x0800208f   0x28  Code  Gb  stm32l1xx_hal_cortex.o [1]
HAL_TIMEx_MasterConfigSynchronization
                        0x080026ab   0x4e  Code  Gb  stm32l1xx_hal_tim_ex.o [1]
HAL_TIM_Base_Init       0x08002175   0x1a  Code  Gb  stm32l1xx_hal_tim.o [1]
HAL_TIM_Base_MspInit    0x0800251d   0x38  Code  Gb  tim.o [1]
HAL_TIM_Base_Start_IT   0x0800218f   0x16  Code  Gb  stm32l1xx_hal_tim.o [1]
HAL_TIM_ConfigClockSource
                        0x080022dd   0xa8  Code  Gb  stm32l1xx_hal_tim.o [1]
HAL_TIM_IC_CaptureCallback
                        0x080023af    0x2  Code  Wk  stm32l1xx_hal_tim.o [1]
HAL_TIM_IRQHandler      0x080021c1  0x112  Code  Gb  stm32l1xx_hal_tim.o [1]
HAL_TIM_OC_DelayElapsedCallback
                        0x080023ad    0x2  Code  Wk  stm32l1xx_hal_tim.o [1]
HAL_TIM_PWM_PulseFinishedCallback
                        0x080023b1    0x2  Code  Wk  stm32l1xx_hal_tim.o [1]
HAL_TIM_PeriodElapsedCallback
                        0x08001ff9    0x4  Code  Gb  stm32l1xx_hal_timebase_TIM.o [1]
HAL_TIM_TriggerCallback
                        0x080023b3    0x2  Code  Wk  stm32l1xx_hal_tim.o [1]
HAL_UART_Init           0x0800348d   0x2a  Code  Gb  stm32l1xx_hal_uart.o [1]
HAL_UART_MspInit        0x08002afb   0x78  Code  Gb  usart.o [1]
HAL_UART_Receive        0x08003591   0x9e  Code  Gb  stm32l1xx_hal_uart.o [1]
HAL_UART_Transmit       0x08003501   0x90  Code  Gb  stm32l1xx_hal_uart.o [1]
HAL_WWDG_Init           0x08003867   0x42  Code  Gb  stm32l1xx_hal_wwdg.o [1]
HAL_WWDG_MspInit        0x08002c8b   0x22  Code  Gb  wwdg.o [1]
LED_PIN                 0x08002ce4    0x2  Data  Gb  stm32l1xx_nucleo.o [1]
LED_PORT                0x20000090    0x4  Data  Gb  stm32l1xx_nucleo.o [1]
MX_ADC_Init             0x08002889   0x4e  Code  Gb  adc.o [1]
MX_DMA_Init             0x08002859   0x30  Code  Gb  dma.o [1]
MX_GPIO_Init            0x080026f9   0xf0  Code  Gb  gpio.o [1]
MX_I2C1_Init            0x080029f9   0x34  Code  Gb  i2c.o [1]
MX_TIM2_Init            0x080024ad   0x1c  Code  Gb  tim.o [1]
MX_TIM3_Init            0x080024c9   0x16  Code  Gb  tim.o [1]
MX_USART2_UART_Init     0x08002a91   0x32  Code  Gb  usart.o [1]
MX_USART3_UART_Init     0x08002ac3   0x38  Code  Gb  usart.o [1]
MX_WWDG_Init            0x08002c65   0x26  Code  Gb  wwdg.o [1]
NVIC_SetPriority        0x0800200d   0x1a  Code  Lc  stm32l1xx_hal_cortex.o [1]
Old_ADC_Channel         0x20000003    0x1  Data  Lc  adc.o [1]
PCD_EP_ISR_Handler      0x08000125  0x2be  Code  Lc  stm32l1xx_hal_pcd.o [1]
PCD_ReadPMA             0x08000455   0x1c  Code  Lc  stm32l1xx_hal_pcd.o [1]
PCD_WritePMA            0x08000431   0x24  Code  Lc  stm32l1xx_hal_pcd.o [1]
PendSV_Handler          0x080039ed         Code  Gb  portasm.o [1]
RCC_SetFlashLatencyFromMSIRange
                        0x08001e8f   0x6c  Code  Lc  stm32l1xx_hal_rcc.o [1]
Region$$Table$$Base     0x08003c10          --   Gb  - Linker created -
Region$$Table$$Limit    0x08003c30          --   Gb  - Linker created -
RoadBrd_ADC_PORT        0x20000064    0xc  Data  Gb  adc.o [1]
RoadBrd_Delay           0x08002a85    0xc  Code  Gb  i2c.o [1]
RoadBrd_LED_PIN         0x08002848   0x10  Data  Gb  gpio.o [1]
RoadBrd_LED_PORT        0x20000070   0x20  Data  Gb  gpio.o [1]
RoadBrd_UART_Receive    0x08002bc5   0x82  Code  Gb  usart.o [1]
RoadBrd_UART_Transmit   0x08002b87   0x3e  Code  Gb  usart.o [1]
RoadBrd_gpio_Off        0x0800281b    0x2  Code  Gb  gpio.o [1]
RoadBrd_gpio_On         0x08002805    0x2  Code  Gb  gpio.o [1]
SVC_Handler             0x08003a3f         Code  Gb  portasm.o [1]
SysTick_Handler         0x08003bd9    0x4  Code  Gb  stm32l1xx_it.o [1]
SystemClock_Config      0x080025f3   0x9a  Code  Gb  main.o [1]
SystemCoreClock         0x20000094    0x4  Data  Gb  system_stm32l1xx.o [1]
SystemInit              0x08003abd   0x38  Code  Gb  system_stm32l1xx.o [1]
TIM4_IRQHandler         0x08003be9    0x6  Code  Gb  stm32l1xx_it.o [1]
TIM_Base_SetConfig      0x080023b5   0x62  Code  Lc  stm32l1xx_hal_tim.o [1]
TIM_ETR_SetConfig       0x08002497   0x14  Code  Lc  stm32l1xx_hal_tim.o [1]
TIM_ITRx_SetConfig      0x08002485   0x12  Code  Lc  stm32l1xx_hal_tim.o [1]
TIM_TI1_ConfigInputStage
                        0x08002435   0x22  Code  Lc  stm32l1xx_hal_tim.o [1]
TIM_TI2_ConfigInputStage
                        0x0800245d   0x28  Code  Lc  stm32l1xx_hal_tim.o [1]
UART_SetConfig          0x080036f7  0x130  Code  Lc  stm32l1xx_hal_uart.o [1]
UART_WaitOnFlagUntilTimeout
                        0x08003659   0x90  Code  Lc  stm32l1xx_hal_uart.o [1]
USBD_ClrClassConfig     0x08000cff    0xa  Code  Gb  usbd_core.o [1]
USBD_CtlContinueRx      0x08001291    0x2  Code  Gb  usbd_ioreq.o [1]
USBD_CtlContinueSendData
                        0x08001281    0x2  Code  Gb  usbd_ioreq.o [1]
USBD_CtlError           0x08001259   0x16  Code  Gb  usbd_ctlreq.o [1]
USBD_CtlReceiveStatus   0x080012af    0xe  Code  Gb  usbd_ioreq.o [1]
USBD_CtlSendData        0x0800126f   0x12  Code  Gb  usbd_ioreq.o [1]
USBD_CtlSendStatus      0x080012a1    0xe  Code  Gb  usbd_ioreq.o [1]
USBD_GetDescriptor      0x0800113d   0xee  Code  Lc  usbd_ctlreq.o [1]
USBD_LL_ClearStallEP    0x08000c91    0xe  Code  Gb  usbd_conf.o [1]
USBD_LL_DataInStage     0x08000dcd   0x9e  Code  Gb  usbd_core.o [1]
USBD_LL_DataOutStage    0x08000d63   0x6a  Code  Gb  usbd_core.o [1]
USBD_LL_IsStallEP       0x08000c9f   0x1c  Code  Gb  usbd_conf.o [1]
USBD_LL_OpenEP          0x08000c6f   0x14  Code  Gb  usbd_conf.o [1]
USBD_LL_PrepareReceive  0x08000cd7    0xe  Code  Gb  usbd_conf.o [1]
USBD_LL_Reset           0x08000e6b   0x44  Code  Gb  usbd_core.o [1]
USBD_LL_Resume          0x08000ec3    0x8  Code  Gb  usbd_core.o [1]
USBD_LL_SOF             0x08000ed1   0x1c  Code  Gb  usbd_core.o [1]
USBD_LL_SetSpeed        0x08000eaf    0x6  Code  Gb  usbd_core.o [1]
USBD_LL_SetUSBAddress   0x08000cbb    0xe  Code  Gb  usbd_conf.o [1]
USBD_LL_SetupStage      0x08000d09   0x5a  Code  Gb  usbd_core.o [1]
USBD_LL_StallEP         0x08000c83    0xe  Code  Gb  usbd_conf.o [1]
USBD_LL_Suspend         0x08000eb5    0xe  Code  Gb  usbd_core.o [1]
USBD_LL_Transmit        0x08000cc9    0xe  Code  Gb  usbd_conf.o [1]
USBD_ParseSetupRequest  0x08001231   0x28  Code  Gb  usbd_ctlreq.o [1]
USBD_SetClassConfig     0x08000ce9   0x16  Code  Gb  usbd_core.o [1]
USBD_SetConfig::cfgidx  0x20000996    0x1  Data  Lc  usbd_ctlreq.o [1]
USBD_StdDevReq          0x08000ef5  0x13e  Code  Gb  usbd_ctlreq.o [1]
USBD_StdEPReq           0x0800106d   0xc6  Code  Gb  usbd_ctlreq.o [1]
USBD_StdItfReq          0x08001039   0x34  Code  Gb  usbd_ctlreq.o [1]
USB_LP_IRQHandler       0x08003be3    0x6  Code  Gb  stm32l1xx_it.o [1]
Uart2Ready              0x20000994    0x1  Data  Gb  usart.o [1]
Uart3Ready              0x20000995    0x1  Data  Gb  usart.o [1]
__cmain                 0x08003c31         Code  Gb  cmain.o [4]
__exit                  0x08003c61   0x14  Code  Gb  exit.o [5]
__iar_data_init3        0x08003b8d   0x28  Code  Gb  data_init.o [4]
__iar_packbits_init_single3
                        0x08003b55   0x38  Code  Gb  packbits_init_single.o [4]
__iar_program_start     0x08003c85         Code  Gb  cstartup_M.o [4]
__iar_zero_init3        0x08003b15   0x40  Code  Gb  zero_init3.o [4]
__low_level_init        0x08003c4b    0x4  Code  Gb  low_level_init.o [3]
__vector_table          0x08000000         Data  Gb  startup_stm32l152xe.o [1]
_call_main              0x08003c3d         Code  Gb  cmain.o [4]
_exit                   0x08003c55         Code  Gb  cexit.o [4]
_main                   0x08003c47         Code  Gb  cmain.o [4]
aPLLDivisionFactorTable
                        0x08001f2c    0x4  Data  Gb  stm32l1xx_hal_rcc.o [1]
aPLLMULFactorTable      0x08001f30    0xc  Data  Gb  stm32l1xx_hal_rcc.o [1]
adcActive               0x20000001    0x1  Data  Gb  adc.o [1]
exit                    0x08003c4f    0x4  Code  Gb  exit.o [3]
hadc                    0x20000004   0x54  Data  Gb  adc.o [1]
hdma_adc                0x2000089c   0x38  Data  Gb  adc.o [1]
hi2c1                   0x20000860   0x3c  Data  Gb  i2c.o [1]
hpcd_USB_FS             0x20000498  0x220  Data  Gb  usbd_conf.o [1]
htim2                   0x2000090c   0x38  Data  Gb  tim.o [1]
htim3                   0x20000944   0x38  Data  Gb  tim.o [1]
htim4                   0x200008d4   0x38  Data  Gb  stm32l1xx_hal_timebase_TIM.o [1]
huart2                  0x200007e0   0x40  Data  Gb  usart.o [1]
huart3                  0x20000820   0x40  Data  Gb  usart.o [1]
hwwdg                   0x2000097c   0x14  Data  Gb  wwdg.o [1]
main                    0x08002565   0x8e  Code  Gb  main.o [1]
osSystickHandler        0x08003bfd   0x14  Code  Gb  cmsis_os.o [1]
prvResetNextTaskUnblockTime
                        0x080039b3   0x1a  Code  Lc  tasks.o [1]
pxCurrentTCB            0x200006e0    0x4  Data  Gb  tasks.o [1]
pxDelayedTaskList       0x200006e4    0x4  Data  Lc  tasks.o [1]
pxOverflowDelayedTaskList
                        0x200006e8    0x4  Data  Lc  tasks.o [1]
pxReadyTasksLists       0x20000754   0x8c  Data  Lc  tasks.o [1]
sConfig                 0x20000058    0xc  Data  Gb  adc.o [1]
ubSequenceCompleted     0x20000000    0x1  Data  Gb  adc.o [1]
ulPortSetInterruptMask  0x08003a2b         Code  Gb  portasm.o [1]
uwTick                  0x20000990    0x4  Data  Lc  stm32l1xx_hal.o [1]
uxCurrentNumberOfTasks  0x20000704    0x4  Data  Lc  tasks.o [1]
uxListRemove            0x08003a99   0x24  Code  Gb  list.o [1]
uxPendedTicks           0x20000714    0x4  Data  Lc  tasks.o [1]
uxSchedulerSuspended    0x20000728    0x4  Data  Lc  tasks.o [1]
uxTaskNumber            0x20000720    0x4  Data  Lc  tasks.o [1]
uxTasksDeleted          0x200006ec    0x4  Data  Lc  tasks.o [1]
uxTopReadyPriority      0x2000070c    0x4  Data  Lc  tasks.o [1]
vListInsertEnd          0x08003a81   0x18  Code  Gb  list.o [1]
vPortClearInterruptMask
                        0x08003a39         Code  Gb  portasm.o [1]
vPortStartFirstTask     0x08003a5f         Code  Gb  portasm.o [1]
vTaskSwitchContext      0x08003969   0x4a  Code  Gb  tasks.o [1]
xDelayedTaskList1       0x2000072c   0x14  Data  Lc  tasks.o [1]
xDelayedTaskList2       0x20000740   0x14  Data  Lc  tasks.o [1]
xNextTaskUnblockTime    0x20000724    0x4  Data  Lc  tasks.o [1]
xNumOfOverflows         0x2000071c    0x4  Data  Lc  tasks.o [1]
xPendingReadyList       0x200006b8   0x14  Data  Lc  tasks.o [1]
xPortSysTickHandler     0x08003bb5   0x1e  Code  Gb  port.o [1]
xSchedulerRunning       0x20000710    0x4  Data  Lc  tasks.o [1]
xSuspendedTaskList      0x200006f0   0x14  Data  Lc  tasks.o [1]
xTaskGetSchedulerState  0x080039cd   0x16  Code  Gb  tasks.o [1]
xTaskIncrementTick      0x080038a9   0xc0  Code  Gb  tasks.o [1]
xTasksWaitingTermination
                        0x200006cc   0x14  Data  Lc  tasks.o [1]
xTickCount              0x20000708    0x4  Data  Lc  tasks.o [1]
xYieldPending           0x20000718    0x4  Data  Lc  tasks.o [1]


[1] = D:\GoogleDriveCLT\GoogleDrive\WeatherCloud\Roadboard\Software\Road Board Rev K NUCLEO BASELINE Jul 14 2016\EWARM\Nucleo Board COM Test\Obj
[2] = command line
[3] = dl7M_tlf.a
[4] = rt7M_tl.a
[5] = shb_l.a

  15 704 bytes of readonly  code memory
      89 bytes of readonly  data memory
   2 455 bytes of readwrite data memory

Errors: none
Warnings: none
